target datalayout = "e-m:e-p270:32:32-p271:32:32-p272:64:64-i64:64-i128:128-f80:128-n8:16:32:64-S128"
target triple = "x86_64-pc-linux-gnu"

%struct.H5C_class_t = type { i32, ptr, i32, i32, ptr, ptr, ptr, ptr, ptr, ptr, ptr, ptr, ptr, ptr }
%struct.H5O_t = type { %struct.H5C_cache_entry_t, i64, i64, i8, i64, i8, i32, i8, i8, i64, i64, i64, i64, i32, i32, i64, i64, ptr, i64, i64, i64, i64, ptr, i8, ptr }
%struct.H5C_cache_entry_t = type { ptr, i64, i64, ptr, i8, ptr, i8, i8, i8, i8, i32, i8, i8, i8, i8, i8, i32, ptr, i32, i32, i32, i32, i32, i8, i8, ptr, ptr, ptr, ptr, ptr, ptr, i8, i32, i8, i64, ptr, i64, i64, i32, i8, i32, i32, i8, ptr, ptr, ptr }
%struct.H5O_loc_t = type { ptr, i64, i8 }
%struct.H5O_chunk_t = type { i64, i64, i64, ptr, ptr }

@H5O_init_g = external global i8, align 1
@H5_libterm_g = external global i8, align 1
@.str = private unnamed_addr constant [101 x i8] c"generated/home/dtcxzyw/WorkSpace/Projects/compilers/llvm-opt-benchmark/bench/hdf5/hdf5/src/H5Otest.c\00", align 1
@H5E_OHDR_g = external global i64, align 8
@H5E_CANTPROTECT_g = external global i64, align 8
@H5E_CANTUNPROTECT_g = external global i64, align 8
@__func__.H5O__expunge_chunks_test = private unnamed_addr constant [25 x i8] c"H5O__expunge_chunks_test\00", align 1
@.str.15 = private unnamed_addr constant [32 x i8] c"unable to protect object header\00", align 1
@.str.16 = private unnamed_addr constant [34 x i8] c"unable to unprotect object header\00", align 1
@H5AC_OHDR = external constant [1 x %struct.H5C_class_t], align 16
@H5AC_OHDR_CHK = external constant [1 x %struct.H5C_class_t], align 16
@H5E_CANTEXPUNGE_g = external global i64, align 8
@.str.17 = private unnamed_addr constant [38 x i8] c"unable to expunge object header chunk\00", align 1

; Function Attrs: nounwind uwtable
define i32 @H5O__expunge_chunks_test(ptr noundef %0) #0 {
  %2 = alloca ptr, align 8
  %3 = alloca ptr, align 8
  %4 = alloca [16 x i64], align 16
  %5 = alloca i64, align 8
  %6 = alloca i64, align 8
  %7 = alloca i32, align 4
  %8 = alloca i8, align 1
  store ptr %0, ptr %2, align 8, !tbaa !16
  call void @llvm.lifetime.start.p0(i64 8, ptr %3) #5
  store ptr null, ptr %3, align 8, !tbaa !7
  call void @llvm.lifetime.start.p0(i64 128, ptr %4) #5
  call void @llvm.lifetime.start.p0(i64 8, ptr %5) #5
  call void @llvm.lifetime.start.p0(i64 8, ptr %6) #5
  call void @llvm.lifetime.start.p0(i64 4, ptr %7) #5
  store i32 0, ptr %7, align 4, !tbaa !12
  call void @llvm.lifetime.start.p0(i64 1, ptr %8) #5
  store i8 0, ptr %8, align 1, !tbaa !10
  %9 = load i8, ptr @H5O_init_g, align 1, !tbaa !10, !range !14, !noundef !15
  %10 = trunc i8 %9 to i1
  br i1 %10, label %15, label %11

11:                                               ; preds = %1
  %12 = load i8, ptr @H5_libterm_g, align 1, !tbaa !10, !range !14, !noundef !15
  %13 = trunc i8 %12 to i1
  %14 = xor i1 %13, true
  br label %15

15:                                               ; preds = %11, %1
  %16 = phi i1 [ true, %1 ], [ %14, %11 ]
  %17 = xor i1 %16, true
  %18 = xor i1 %17, true
  %19 = zext i1 %18 to i32
  %20 = sext i32 %19 to i64
  %21 = call i64 @llvm.expect.i64(i64 %20, i64 1)
  %22 = icmp ne i64 %21, 0
  br i1 %22, label %23, label %137

23:                                               ; preds = %15
  %24 = load ptr, ptr %2, align 8, !tbaa !16
  %25 = call ptr @H5O_protect(ptr noundef %24, i32 noundef 0, i1 noundef zeroext false)
  store ptr %25, ptr %3, align 8, !tbaa !7
  %26 = icmp eq ptr null, %25
  br i1 %26, label %27, label %46

27:                                               ; preds = %23
  br label %28

28:                                               ; preds = %27
  br label %29

29:                                               ; preds = %28
  br label %30

30:                                               ; preds = %29
  %31 = load i64, ptr @H5E_OHDR_g, align 8, !tbaa !3
  %32 = load i64, ptr @H5E_CANTPROTECT_g, align 8, !tbaa !3
  %33 = call i32 (ptr, ptr, i32, i64, i64, ptr, ...) @H5E_printf_stack(ptr noundef @.str, ptr noundef @__func__.H5O__expunge_chunks_test, i32 noundef 535, i64 noundef %31, i64 noundef %32, ptr noundef @.str.15)
  br label %34

34:                                               ; preds = %30
  br label %35

35:                                               ; preds = %34
  store i8 1, ptr %8, align 1, !tbaa !10
  %36 = load i8, ptr %8, align 1, !tbaa !10, !range !14, !noundef !15
  %37 = trunc i8 %36 to i1
  %38 = zext i1 %37 to i8
  store i8 %38, ptr %8, align 1, !tbaa !10
  br label %39

39:                                               ; preds = %35
  br label %40

40:                                               ; preds = %39
  br label %41

41:                                               ; preds = %40
  store i32 -1, ptr %7, align 4, !tbaa !12
  br label %136

42:                                               ; No predecessors!
  br label %43

43:                                               ; preds = %42
  br label %44

44:                                               ; preds = %43
  br label %45

45:                                               ; preds = %44
  br label %46

46:                                               ; preds = %45, %23
  %47 = load ptr, ptr %3, align 8, !tbaa !7
  %48 = getelementptr inbounds nuw %struct.H5O_t, ptr %47, i32 0, i32 20
  %49 = load i64, ptr %48, align 8, !tbaa !53
  store i64 %49, ptr %5, align 8, !tbaa !3
  store i64 0, ptr %6, align 8, !tbaa !3
  br label %50

50:                                               ; preds = %66, %46
  %51 = load i64, ptr %6, align 8, !tbaa !3
  %52 = load ptr, ptr %3, align 8, !tbaa !7
  %53 = getelementptr inbounds nuw %struct.H5O_t, ptr %52, i32 0, i32 20
  %54 = load i64, ptr %53, align 8, !tbaa !53
  %55 = icmp ult i64 %51, %54
  br i1 %55, label %56, label %69

56:                                               ; preds = %50
  %57 = load ptr, ptr %3, align 8, !tbaa !7
  %58 = getelementptr inbounds nuw %struct.H5O_t, ptr %57, i32 0, i32 22
  %59 = load ptr, ptr %58, align 8, !tbaa !54
  %60 = load i64, ptr %6, align 8, !tbaa !3
  %61 = getelementptr inbounds nuw %struct.H5O_chunk_t, ptr %59, i64 %60
  %62 = getelementptr inbounds nuw %struct.H5O_chunk_t, ptr %61, i32 0, i32 0
  %63 = load i64, ptr %62, align 8, !tbaa !55
  %64 = load i64, ptr %6, align 8, !tbaa !3
  %65 = getelementptr inbounds nuw [16 x i64], ptr %4, i64 0, i64 %64
  store i64 %63, ptr %65, align 8, !tbaa !3
  br label %66

66:                                               ; preds = %56
  %67 = load i64, ptr %6, align 8, !tbaa !3
  %68 = add i64 %67, 1
  store i64 %68, ptr %6, align 8, !tbaa !3
  br label %50, !llvm.loop !58

69:                                               ; preds = %50
  %70 = load ptr, ptr %2, align 8, !tbaa !16
  %71 = load ptr, ptr %3, align 8, !tbaa !7
  %72 = call i32 @H5O_unprotect(ptr noundef %70, ptr noundef %71, i32 noundef 0)
  %73 = icmp slt i32 %72, 0
  br i1 %73, label %74, label %93

74:                                               ; preds = %69
  br label %75

75:                                               ; preds = %74
  br label %76

76:                                               ; preds = %75
  br label %77

77:                                               ; preds = %76
  %78 = load i64, ptr @H5E_OHDR_g, align 8, !tbaa !3
  %79 = load i64, ptr @H5E_CANTUNPROTECT_g, align 8, !tbaa !3
  %80 = call i32 (ptr, ptr, i32, i64, i64, ptr, ...) @H5E_printf_stack(ptr noundef @.str, ptr noundef @__func__.H5O__expunge_chunks_test, i32 noundef 547, i64 noundef %78, i64 noundef %79, ptr noundef @.str.16)
  br label %81

81:                                               ; preds = %77
  br label %82

82:                                               ; preds = %81
  store i8 1, ptr %8, align 1, !tbaa !10
  %83 = load i8, ptr %8, align 1, !tbaa !10, !range !14, !noundef !15
  %84 = trunc i8 %83 to i1
  %85 = zext i1 %84 to i8
  store i8 %85, ptr %8, align 1, !tbaa !10
  br label %86

86:                                               ; preds = %82
  br label %87

87:                                               ; preds = %86
  br label %88

88:                                               ; preds = %87
  store i32 -1, ptr %7, align 4, !tbaa !12
  br label %136

89:                                               ; No predecessors!
  br label %90

90:                                               ; preds = %89
  br label %91

91:                                               ; preds = %90
  br label %92

92:                                               ; preds = %91
  br label %93

93:                                               ; preds = %92, %69
  %94 = load i64, ptr %5, align 8, !tbaa !3
  %95 = sub i64 %94, 1
  store i64 %95, ptr %6, align 8, !tbaa !3
  br label %96

96:                                               ; preds = %132, %93
  %97 = load i64, ptr %6, align 8, !tbaa !3
  %98 = load i64, ptr %5, align 8, !tbaa !3
  %99 = icmp ult i64 %97, %98
  br i1 %99, label %100, label %135

100:                                              ; preds = %96
  %101 = load ptr, ptr %2, align 8, !tbaa !16
  %102 = getelementptr inbounds nuw %struct.H5O_loc_t, ptr %101, i32 0, i32 0
  %103 = load ptr, ptr %102, align 8, !tbaa !32
  %104 = load i64, ptr %6, align 8, !tbaa !3
  %105 = icmp eq i64 %104, 0
  %106 = select i1 %105, ptr @H5AC_OHDR, ptr @H5AC_OHDR_CHK
  %107 = load i64, ptr %6, align 8, !tbaa !3
  %108 = getelementptr inbounds nuw [16 x i64], ptr %4, i64 0, i64 %107
  %109 = load i64, ptr %108, align 8, !tbaa !3
  %110 = call i32 @H5AC_expunge_entry(ptr noundef %103, ptr noundef %106, i64 noundef %109, i32 noundef 0)
  %111 = icmp slt i32 %110, 0
  br i1 %111, label %112, label %131

112:                                              ; preds = %100
  br label %113

113:                                              ; preds = %112
  br label %114

114:                                              ; preds = %113
  br label %115

115:                                              ; preds = %114
  %116 = load i64, ptr @H5E_OHDR_g, align 8, !tbaa !3
  %117 = load i64, ptr @H5E_CANTEXPUNGE_g, align 8, !tbaa !3
  %118 = call i32 (ptr, ptr, i32, i64, i64, ptr, ...) @H5E_printf_stack(ptr noundef @.str, ptr noundef @__func__.H5O__expunge_chunks_test, i32 noundef 554, i64 noundef %116, i64 noundef %117, ptr noundef @.str.17)
  br label %119

119:                                              ; preds = %115
  br label %120

120:                                              ; preds = %119
  store i8 1, ptr %8, align 1, !tbaa !10
  %121 = load i8, ptr %8, align 1, !tbaa !10, !range !14, !noundef !15
  %122 = trunc i8 %121 to i1
  %123 = zext i1 %122 to i8
  store i8 %123, ptr %8, align 1, !tbaa !10
  br label %124

124:                                              ; preds = %120
  br label %125

125:                                              ; preds = %124
  br label %126

126:                                              ; preds = %125
  store i32 -1, ptr %7, align 4, !tbaa !12
  br label %136

127:                                              ; No predecessors!
  br label %128

128:                                              ; preds = %127
  br label %129

129:                                              ; preds = %128
  br label %130

130:                                              ; preds = %129
  br label %131

131:                                              ; preds = %130, %100
  br label %132

132:                                              ; preds = %131
  %133 = load i64, ptr %6, align 8, !tbaa !3
  %134 = add i64 %133, -1
  store i64 %134, ptr %6, align 8, !tbaa !3
  br label %96, !llvm.loop !59

135:                                              ; preds = %96
  br label %136

136:                                              ; preds = %135, %126, %88, %41
  br label %137

137:                                              ; preds = %136, %15
  %138 = load i32, ptr %7, align 4, !tbaa !12
  call void @llvm.lifetime.end.p0(i64 1, ptr %8) #5
  call void @llvm.lifetime.end.p0(i64 4, ptr %7) #5
  call void @llvm.lifetime.end.p0(i64 8, ptr %6) #5
  call void @llvm.lifetime.end.p0(i64 8, ptr %5) #5
  call void @llvm.lifetime.end.p0(i64 128, ptr %4) #5
  call void @llvm.lifetime.end.p0(i64 8, ptr %3) #5
  ret i32 %138
}