; Function Attrs: nounwind uwtable
define range(i32 -1, 1) i32 @H5O__expunge_chunks_test(ptr noundef %0) local_unnamed_addr #0 {
  %2 = alloca [16 x i64], align 16
  call void @llvm.lifetime.start.p0(i64 128, ptr nonnull %2) #4
  %3 = load i8, ptr @H5O_init_g, align 1, !tbaa !3, !range !7, !noundef !8
  %4 = trunc nuw i8 %3 to i1
  %5 = load i8, ptr @H5_libterm_g, align 1, !range !7
  %6 = trunc nuw i8 %5 to i1
  %7 = xor i1 %6, true
  %8 = select i1 %4, i1 true, i1 %7
  br i1 %8, label %9, label %.loopexit, !prof !9

9:                                                ; preds = %1
  %10 = tail call ptr @H5O_protect(ptr noundef %0, i32 noundef 0, i1 noundef zeroext false) #4
  %11 = icmp eq ptr %10, null
  br i1 %11, label %12, label %16

12:                                               ; preds = %9
  %13 = load i64, ptr @H5E_OHDR_g, align 8, !tbaa !10
  %14 = load i64, ptr @H5E_CANTPROTECT_g, align 8, !tbaa !10
  %15 = tail call i32 (ptr, ptr, i32, i64, i64, ptr, ...) @H5E_printf_stack(ptr noundef nonnull @.str, ptr noundef nonnull @__func__.H5O__expunge_chunks_test, i32 noundef 535, i64 noundef %13, i64 noundef %14, ptr noundef nonnull @.str.15) #4
  br label %.loopexit

16:                                               ; preds = %9
  %17 = getelementptr inbounds nuw i8, ptr %10, i64 376
  %18 = load i64, ptr %17, align 8, !tbaa !45
  %.not = icmp eq i64 %18, 0
  br i1 %.not, label %._crit_edge, label %.lr.ph

.lr.ph:                                           ; preds = %16
  %19 = getelementptr inbounds nuw i8, ptr %10, i64 392
  %20 = load ptr, ptr %19, align 8, !tbaa !46
  br label %21

21:                                               ; preds = %.lr.ph, %21
  %.02022 = phi i64 [ 0, %.lr.ph ], [ %25, %21 ]
  %22 = getelementptr inbounds nuw %struct.H5O_chunk_t, ptr %20, i64 %.02022
  %23 = load i64, ptr %22, align 8, !tbaa !47
  %24 = getelementptr inbounds nuw [16 x i64], ptr %2, i64 0, i64 %.02022
  store i64 %23, ptr %24, align 8, !tbaa !10
  %25 = add nuw i64 %.02022, 1
  %exitcond.not = icmp eq i64 %25, %18
  br i1 %exitcond.not, label %._crit_edge, label %21, !llvm.loop !50

._crit_edge:                                      ; preds = %21, %16
  %26 = tail call i32 @H5O_unprotect(ptr noundef %0, ptr noundef nonnull %10, i32 noundef 0) #4
  %27 = icmp slt i32 %26, 0
  br i1 %27, label %28, label %.preheader

28:                                               ; preds = %._crit_edge
  %29 = load i64, ptr @H5E_OHDR_g, align 8, !tbaa !10
  %30 = load i64, ptr @H5E_CANTUNPROTECT_g, align 8, !tbaa !10
  %31 = tail call i32 (ptr, ptr, i32, i64, i64, ptr, ...) @H5E_printf_stack(ptr noundef nonnull @.str, ptr noundef nonnull @__func__.H5O__expunge_chunks_test, i32 noundef 547, i64 noundef %29, i64 noundef %30, ptr noundef nonnull @.str.16) #4
  br label %.loopexit

.preheader:                                       ; preds = %._crit_edge, %33
  %.1.in = phi i64 [ %.1, %33 ], [ %18, %._crit_edge ]
  %.1 = add i64 %.1.in, -1
  %32 = icmp ult i64 %.1, %18
  br i1 %32, label %33, label %.loopexit

33:                                               ; preds = %.preheader
  %34 = load ptr, ptr %0, align 8, !tbaa !28
  %35 = icmp eq i64 %.1, 0
  %36 = select i1 %35, ptr @H5AC_OHDR, ptr @H5AC_OHDR_CHK
  %37 = getelementptr inbounds nuw [16 x i64], ptr %2, i64 0, i64 %.1
  %38 = load i64, ptr %37, align 8, !tbaa !10
  %39 = tail call i32 @H5AC_expunge_entry(ptr noundef %34, ptr noundef nonnull %36, i64 noundef %38, i32 noundef 0) #4
  %40 = icmp slt i32 %39, 0
  br i1 %40, label %41, label %.preheader, !llvm.loop !51

41:                                               ; preds = %33
  %42 = load i64, ptr @H5E_OHDR_g, align 8, !tbaa !10
  %43 = load i64, ptr @H5E_CANTEXPUNGE_g, align 8, !tbaa !10
  %44 = tail call i32 (ptr, ptr, i32, i64, i64, ptr, ...) @H5E_printf_stack(ptr noundef nonnull @.str, ptr noundef nonnull @__func__.H5O__expunge_chunks_test, i32 noundef 554, i64 noundef %42, i64 noundef %43, ptr noundef nonnull @.str.17) #4
  br label %.loopexit

.loopexit:                                        ; preds = %.preheader, %12, %28, %41, %1
  %.0 = phi i32 [ -1, %12 ], [ -1, %28 ], [ -1, %41 ], [ 0, %1 ], [ 0, %.preheader ]
  call void @llvm.lifetime.end.p0(i64 128, ptr nonnull %2) #4
  ret i32 %.0
}